#include <math.h>
#include <stdio.h>
#include <stdlib.h>
#include <string.h>

int main(){
	int n;
	scanf("%d",&n);
	int i;
	for(i=0;i<n;i++){
		float a,b,c;
		scanf("%f %f %f",&a,&b,&c);
        if(b*b-4*a*c>=0){
			if((-b+sqrt(b*b-4*a*c))/(2*a)==(-b-sqrt(b*b-4*a*c))/(2*a)){
				printf("x1=x2=%.5lf\n",(-b+sqrt(b*b-4*a*c))/(2*a));
			}
			else {printf("x1=%.5lf;x2=%.5lf\n",(-b+sqrt(b*b-4*a*c))/(2*a),(-b-sqrt(b*b-4*a*c))/(2*a));
			}
		}
		else{
			if(b==0)b=-b;
		printf("x1=%.5lf+%.5lfi;x2=%.5lf-%.5lfi\n",-b/(2*a),sqrt(-b*b+4*a*c)/(2*a),-b/(2*a),sqrt(-b*b+4*a*c)/(2*a));
		}
	}
		return 0;
}

